; ModuleID = '53/1574.c'
source_filename = "53/1574.c"
target datalayout = "e-m:e-p270:32:32-p271:32:32-p272:64:64-i64:64-f80:128-n8:16:32:64-S128"
target triple = "x86_64-pc-linux-gnu"

@.str = private unnamed_addr constant [3 x i8] c"%d\00", align 1
@.str.1 = private unnamed_addr constant [4 x i8] c" %d\00", align 1
@.str.2 = private unnamed_addr constant [4 x i8] c",%d\00", align 1

; Function Attrs: noinline nounwind uwtable
define dso_local i32 @main() #0 {
  %1 = alloca i32, align 4
  %2 = alloca i32, align 4
  %3 = alloca i32, align 4
  %4 = alloca i32, align 4
  %5 = alloca i32, align 4
  %6 = alloca i32, align 4
  %7 = alloca [300 x i32], align 16
  store i32 0, i32* %1, align 4
  %8 = call i32 (i8*, ...) @__isoc99_scanf(i8* getelementptr inbounds ([3 x i8], [3 x i8]* @.str, i64 0, i64 0), i32* %2)
  %9 = getelementptr inbounds [300 x i32], [300 x i32]* %7, i64 0, i64 0
  %10 = call i32 (i8*, ...) @__isoc99_scanf(i8* getelementptr inbounds ([3 x i8], [3 x i8]* @.str, i64 0, i64 0), i32* %9)
  store i32 1, i32* %3, align 4
  br label %11

11:                                               ; preds = %42, %0
  %12 = call i32 @getchar()
  %13 = icmp ne i32 %12, 10
  br i1 %13, label %14, label %45

14:                                               ; preds = %11
  %15 = call i32 (i8*, ...) @__isoc99_scanf(i8* getelementptr inbounds ([4 x i8], [4 x i8]* @.str.1, i64 0, i64 0), i32* %6)
  %16 = load i32, i32* %6, align 4
  %17 = load i32, i32* %3, align 4
  %18 = sext i32 %17 to i64
  %19 = getelementptr inbounds [300 x i32], [300 x i32]* %7, i64 0, i64 %18
  store i32 %16, i32* %19, align 4
  store i32 0, i32* %4, align 4
  br label %20

20:                                               ; preds = %38, %14
  %21 = load i32, i32* %4, align 4
  %22 = load i32, i32* %3, align 4
  %23 = icmp slt i32 %21, %22
  br i1 %23, label %24, label %41

24:                                               ; preds = %20
  %25 = load i32, i32* %3, align 4
  %26 = sext i32 %25 to i64
  %27 = getelementptr inbounds [300 x i32], [300 x i32]* %7, i64 0, i64 %26
  %28 = load i32, i32* %27, align 4
  %29 = load i32, i32* %4, align 4
  %30 = sext i32 %29 to i64
  %31 = getelementptr inbounds [300 x i32], [300 x i32]* %7, i64 0, i64 %30
  %32 = load i32, i32* %31, align 4
  %33 = icmp eq i32 %28, %32
  br i1 %33, label %34, label %37

34:                                               ; preds = %24
  %35 = load i32, i32* %3, align 4
  %36 = add nsw i32 %35, -1
  store i32 %36, i32* %3, align 4
  br label %41

37:                                               ; preds = %24
  br label %38

38:                                               ; preds = %37
  %39 = load i32, i32* %4, align 4
  %40 = add nsw i32 %39, 1
  store i32 %40, i32* %4, align 4
  br label %20

41:                                               ; preds = %34, %20
  br label %42

42:                                               ; preds = %41
  %43 = load i32, i32* %3, align 4
  %44 = add nsw i32 %43, 1
  store i32 %44, i32* %3, align 4
  br label %11

45:                                               ; preds = %11
  %46 = getelementptr inbounds [300 x i32], [300 x i32]* %7, i64 0, i64 0
  %47 = load i32, i32* %46, align 16
  %48 = call i32 (i8*, ...) @printf(i8* getelementptr inbounds ([3 x i8], [3 x i8]* @.str, i64 0, i64 0), i32 %47)
  store i32 1, i32* %4, align 4
  br label %49

49:                                               ; preds = %59, %45
  %50 = load i32, i32* %4, align 4
  %51 = load i32, i32* %3, align 4
  %52 = icmp slt i32 %50, %51
  br i1 %52, label %53, label %62

53:                                               ; preds = %49
  %54 = load i32, i32* %4, align 4
  %55 = sext i32 %54 to i64
  %56 = getelementptr inbounds [300 x i32], [300 x i32]* %7, i64 0, i64 %55
  %57 = load i32, i32* %56, align 4
  %58 = call i32 (i8*, ...) @printf(i8* getelementptr inbounds ([4 x i8], [4 x i8]* @.str.2, i64 0, i64 0), i32 %57)
  br label %59

59:                                               ; preds = %53
  %60 = load i32, i32* %4, align 4
  %61 = add nsw i32 %60, 1
  store i32 %61, i32* %4, align 4
  br label %49

62:                                               ; preds = %49
  ret i32 0
}

declare dso_local i32 @__isoc99_scanf(i8*, ...) #1

declare dso_local i32 @getchar() #1

declare dso_local i32 @printf(i8*, ...) #1


!llvm.module.flags = !{!0}
!llvm.ident = !{!1}

!0 = !{i32 1, !"wchar_size", i32 4}
!1 = !{!"clang version 10.0.0-4ubuntu1 "}
